; Function Attrs: mustprogress uwtable
define dso_local void @_ZN10JsonErrors20INVALID_NAMED_OBJECTERKSt8functionIFNSt7__cxx1112basic_stringIcSt11char_traitsIcESaIcEEEPKN4Json5ValueEP11cmJSONStateEE(ptr dead_on_unwind noalias writable writeonly sret(%"class.std::function.0") align 8 captures(none) %0, ptr noundef nonnull align 8 dereferenceable(32) %1) local_unnamed_addr #3 personality ptr @__gxx_personality_v0 {
  %3 = alloca %class.anon.3, align 8
  %4 = getelementptr inbounds nuw i8, ptr %3, i64 16
  %5 = getelementptr inbounds nuw i8, ptr %3, i64 24
  %6 = getelementptr inbounds nuw i8, ptr %1, i64 16
  call void @llvm.memset.p0.i64(ptr noundef nonnull align 8 dereferenceable(32) %3, i8 0, i64 32, i1 false)
  %7 = load ptr, ptr %6, align 8
  %.not.i.i.not.i = icmp eq ptr %7, null
  br i1 %.not.i.i.not.i, label %_ZNSt8functionIFNSt7__cxx1112basic_stringIcSt11char_traitsIcESaIcEEEPKN4Json5ValueEP11cmJSONStateEEC2ERKSD_.exit, label %8

8:                                                ; preds = %2
  %9 = invoke noundef zeroext i1 %7(ptr noundef nonnull align 8 dereferenceable(32) %3, ptr noundef nonnull align 8 dereferenceable(32) %1, i32 noundef 2)
          to label %10 unwind label %14

10:                                               ; preds = %8
  %11 = getelementptr inbounds nuw i8, ptr %1, i64 24
  %12 = load ptr, ptr %11, align 8
  store ptr %12, ptr %5, align 8
  %13 = load ptr, ptr %6, align 8
  store ptr %13, ptr %4, align 8
  br label %_ZNSt8functionIFNSt7__cxx1112basic_stringIcSt11char_traitsIcESaIcEEEPKN4Json5ValueEP11cmJSONStateEEC2ERKSD_.exit

14:                                               ; preds = %8
  %15 = landingpad { ptr, i32 }
          cleanup
  %16 = load ptr, ptr %4, align 8
  %.not.i.i = icmp eq ptr %16, null
  br i1 %.not.i.i, label %common.resume, label %17

17:                                               ; preds = %14
  %18 = invoke noundef zeroext i1 %16(ptr noundef nonnull align 8 dereferenceable(32) %3, ptr noundef nonnull align 8 dereferenceable(32) %3, i32 noundef 3)
          to label %common.resume unwind label %19

19:                                               ; preds = %17
  %20 = landingpad { ptr, i32 }
          catch ptr null
  %21 = extractvalue { ptr, i32 } %20, 0
  call void @__clang_call_terminate(ptr %21) #18
  unreachable

common.resume:                                    ; preds = %50, %.body, %14, %17
  %common.resume.op = phi { ptr, i32 } [ %15, %17 ], [ %15, %14 ], [ %eh.lpad-body, %.body ], [ %eh.lpad-body, %50 ]
  resume { ptr, i32 } %common.resume.op

_ZNSt8functionIFNSt7__cxx1112basic_stringIcSt11char_traitsIcESaIcEEEPKN4Json5ValueEP11cmJSONStateEEC2ERKSD_.exit: ; preds = %2, %10
  %22 = phi ptr [ null, %2 ], [ %13, %10 ]
  %23 = getelementptr inbounds nuw i8, ptr %0, i64 16
  call void @llvm.memset.p0.i64(ptr noundef nonnull align 8 dereferenceable(32) %0, i8 0, i64 32, i1 false)
  %24 = invoke noalias noundef nonnull dereferenceable(32) ptr @_Znwm(i64 noundef 32) #15
          to label %.noexc unwind label %47

.noexc:                                           ; preds = %_ZNSt8functionIFNSt7__cxx1112basic_stringIcSt11char_traitsIcESaIcEEEPKN4Json5ValueEP11cmJSONStateEEC2ERKSD_.exit
  %25 = getelementptr inbounds nuw i8, ptr %24, i64 16
  %26 = getelementptr inbounds nuw i8, ptr %24, i64 24
  call void @llvm.memset.p0.i64(ptr noundef nonnull align 8 dereferenceable(32) %24, i8 0, i64 32, i1 false)
  %.not.i.i.not.i.i.i.i.i = icmp eq ptr %22, null
  br i1 %.not.i.i.not.i.i.i.i.i, label %.thread, label %28

.thread:                                          ; preds = %.noexc
  %27 = getelementptr inbounds nuw i8, ptr %0, i64 24
  store ptr %24, ptr %0, align 8
  store ptr @"_ZNSt17_Function_handlerIFSt8functionIFvPKN4Json5ValueEP11cmJSONStateEEN10JsonErrors11ObjectErrorERKSt6vectorINSt7__cxx1112basic_stringIcSt11char_traitsIcESaIcEEESaISH_EEEZNS9_20INVALID_NAMED_OBJECTERKS0_IFSH_S4_S6_EEE3$_0E9_M_invokeERKSt9_Any_dataOSA_SL_", ptr %27, align 8
  store ptr @"_ZNSt17_Function_handlerIFSt8functionIFvPKN4Json5ValueEP11cmJSONStateEEN10JsonErrors11ObjectErrorERKSt6vectorINSt7__cxx1112basic_stringIcSt11char_traitsIcESaIcEEESaISH_EEEZNS9_20INVALID_NAMED_OBJECTERKS0_IFSH_S4_S6_EEE3$_0E10_M_managerERSt9_Any_dataRKST_St18_Manager_operation", ptr %23, align 8
  br label %"_ZZN10JsonErrors20INVALID_NAMED_OBJECTERKSt8functionIFNSt7__cxx1112basic_stringIcSt11char_traitsIcESaIcEEEPKN4Json5ValueEP11cmJSONStateEEEN3$_0D2Ev.exit"

28:                                               ; preds = %.noexc
  %29 = invoke noundef zeroext i1 %22(ptr noundef nonnull align 8 dereferenceable(32) %24, ptr noundef nonnull align 8 dereferenceable(32) %3, i32 noundef 2)
          to label %38 unwind label %30

30:                                               ; preds = %28
  %31 = landingpad { ptr, i32 }
          cleanup
  %32 = load ptr, ptr %25, align 8
  %.not.i.i.i.i.i.i = icmp eq ptr %32, null
  br i1 %.not.i.i.i.i.i.i, label %.body.i..body_crit_edge, label %33

33:                                               ; preds = %30
  %34 = invoke noundef zeroext i1 %32(ptr noundef nonnull align 8 dereferenceable(32) %24, ptr noundef nonnull align 8 dereferenceable(32) %24, i32 noundef 3)
          to label %.body.i..body_crit_edge unwind label %35

35:                                               ; preds = %33
  %36 = landingpad { ptr, i32 }
          catch ptr null
  %37 = extractvalue { ptr, i32 } %36, 0
  call void @__clang_call_terminate(ptr %37) #18
  unreachable

.body.i..body_crit_edge:                          ; preds = %30, %33
  call void @_ZdlPv(ptr noundef nonnull %24) #16
  %.pre = load ptr, ptr %4, align 8
  br label %.body

38:                                               ; preds = %28
  %39 = load ptr, ptr %5, align 8
  store ptr %39, ptr %26, align 8
  %40 = load ptr, ptr %4, align 8
  store ptr %40, ptr %25, align 8
  %41 = getelementptr inbounds nuw i8, ptr %0, i64 24
  store ptr %24, ptr %0, align 8
  store ptr @"_ZNSt17_Function_handlerIFSt8functionIFvPKN4Json5ValueEP11cmJSONStateEEN10JsonErrors11ObjectErrorERKSt6vectorINSt7__cxx1112basic_stringIcSt11char_traitsIcESaIcEEESaISH_EEEZNS9_20INVALID_NAMED_OBJECTERKS0_IFSH_S4_S6_EEE3$_0E9_M_invokeERKSt9_Any_dataOSA_SL_", ptr %41, align 8
  store ptr @"_ZNSt17_Function_handlerIFSt8functionIFvPKN4Json5ValueEP11cmJSONStateEEN10JsonErrors11ObjectErrorERKSt6vectorINSt7__cxx1112basic_stringIcSt11char_traitsIcESaIcEEESaISH_EEEZNS9_20INVALID_NAMED_OBJECTERKS0_IFSH_S4_S6_EEE3$_0E10_M_managerERSt9_Any_dataRKST_St18_Manager_operation", ptr %23, align 8
  %.not.i.i.i = icmp eq ptr %40, null
  br i1 %.not.i.i.i, label %"_ZZN10JsonErrors20INVALID_NAMED_OBJECTERKSt8functionIFNSt7__cxx1112basic_stringIcSt11char_traitsIcESaIcEEEPKN4Json5ValueEP11cmJSONStateEEEN3$_0D2Ev.exit", label %42

42:                                               ; preds = %38
  %43 = invoke noundef zeroext i1 %40(ptr noundef nonnull align 8 dereferenceable(32) %3, ptr noundef nonnull align 8 dereferenceable(32) %3, i32 noundef 3)
          to label %"_ZZN10JsonErrors20INVALID_NAMED_OBJECTERKSt8functionIFNSt7__cxx1112basic_stringIcSt11char_traitsIcESaIcEEEPKN4Json5ValueEP11cmJSONStateEEEN3$_0D2Ev.exit" unwind label %44

44:                                               ; preds = %42
  %45 = landingpad { ptr, i32 }
          catch ptr null
  %46 = extractvalue { ptr, i32 } %45, 0
  call void @__clang_call_terminate(ptr %46) #18
  unreachable

"_ZZN10JsonErrors20INVALID_NAMED_OBJECTERKSt8functionIFNSt7__cxx1112basic_stringIcSt11char_traitsIcESaIcEEEPKN4Json5ValueEP11cmJSONStateEEEN3$_0D2Ev.exit": ; preds = %.thread, %38, %42
  ret void

47:                                               ; preds = %_ZNSt8functionIFNSt7__cxx1112basic_stringIcSt11char_traitsIcESaIcEEEPKN4Json5ValueEP11cmJSONStateEEC2ERKSD_.exit
  %48 = landingpad { ptr, i32 }
          cleanup
  br label %.body

.body:                                            ; preds = %.body.i..body_crit_edge, %47
  %49 = phi ptr [ %22, %47 ], [ %.pre, %.body.i..body_crit_edge ]
  %eh.lpad-body = phi { ptr, i32 } [ %48, %47 ], [ %31, %.body.i..body_crit_edge ]
  %.not.i.i.i4 = icmp eq ptr %49, null
  br i1 %.not.i.i.i4, label %common.resume, label %50

50:                                               ; preds = %.body
  %51 = invoke noundef zeroext i1 %49(ptr noundef nonnull align 8 dereferenceable(32) %3, ptr noundef nonnull align 8 dereferenceable(32) %3, i32 noundef 3)
          to label %common.resume unwind label %52

52:                                               ; preds = %50
  %53 = landingpad { ptr, i32 }
          catch ptr null
  %54 = extractvalue { ptr, i32 } %53, 0
  call void @__clang_call_terminate(ptr %54) #18
  unreachable
}